target datalayout = "e-m:e-p270:32:32-p271:32:32-p272:64:64-i64:64-i128:128-f80:128-n8:16:32:64-S128"
target triple = "x86_64-pc-linux-gnu"

%"class.JfrThreadGroup::JfrThreadGroupEntry" = type { i64, i64, ptr, ptr, ptr }

; Function Attrs: mustprogress nounwind uwtable
define linkonce_odr hidden noundef ptr @_ZN11JfrCHeapObj9new_arrayIcEEPT_m(i64 noundef %0) #1 comdat align 2 {
  %2 = alloca i64, align 8
  %3 = alloca ptr, align 8
  store i64 %0, ptr %2, align 8
  %4 = load i64, ptr %2, align 8
  %5 = call noundef ptr @_ZN11JfrCHeapObj23allocate_array_noinlineEmm(i64 noundef %4, i64 noundef 1)
  store ptr %5, ptr %3, align 8
  %6 = load ptr, ptr %3, align 8
  %7 = load i64, ptr %2, align 8
  %8 = mul i64 1, %7
  call void @_ZN11JfrCHeapObj20on_memory_allocationEPKvm(ptr noundef %6, i64 noundef %8)
  %9 = load ptr, ptr %3, align 8
  ret ptr %9
}

; Function Attrs: mustprogress nounwind uwtable
define hidden void @_ZN14JfrThreadGroup19JfrThreadGroupEntry21set_thread_group_nameEPKc(ptr noundef nonnull align 8 dereferenceable(40) %0, ptr noundef %1) #1 align 2 {
  %3 = alloca ptr, align 8
  %4 = alloca ptr, align 8
  %5 = alloca i64, align 8
  store ptr %0, ptr %3, align 8
  store ptr %1, ptr %4, align 8
  %6 = load ptr, ptr %3, align 8
  %7 = load ptr, ptr %4, align 8
  %8 = icmp ne ptr %7, null
  br i1 %8, label %9, label %22

9:                                                ; preds = %2
  %10 = load ptr, ptr %4, align 8
  %11 = call i64 @strlen(ptr noundef %10) #9
  store i64 %11, ptr %5, align 8
  %12 = load i64, ptr %5, align 8
  %13 = add i64 %12, 1
  %14 = call noundef ptr @_ZN11JfrCHeapObj9new_arrayIcEEPT_m(i64 noundef %13)
  %15 = getelementptr inbounds %"class.JfrThreadGroup::JfrThreadGroupEntry", ptr %6, i32 0, i32 2
  store ptr %14, ptr %15, align 8
  %16 = getelementptr inbounds %"class.JfrThreadGroup::JfrThreadGroupEntry", ptr %6, i32 0, i32 2
  %17 = load ptr, ptr %16, align 8
  %18 = load ptr, ptr %4, align 8
  %19 = load i64, ptr %5, align 8
  %20 = add i64 %19, 1
  %21 = call ptr @strncpy(ptr noundef %17, ptr noundef %18, i64 noundef %20) #2
  br label %22

22:                                               ; preds = %9, %2
  ret void
}