; Function Attrs: mustprogress nounwind uwtable
define hidden void @_ZN14JfrThreadGroup19JfrThreadGroupEntry21set_thread_group_nameEPKc(ptr nocapture noundef nonnull writeonly align 8 dereferenceable(40) %0, ptr noundef readonly %1) local_unnamed_addr #0 align 2 {
  %.not = icmp eq ptr %1, null
  br i1 %.not, label %9, label %3

3:                                                ; preds = %2
  %4 = tail call i64 @strlen(ptr noundef nonnull dereferenceable(1) %1) #21
  %5 = add i64 %4, 1
  %6 = tail call noundef ptr @_ZN11JfrCHeapObj23allocate_array_noinlineEmm(i64 noundef %5, i64 noundef 1) #20
  tail call void @_ZN11JfrCHeapObj20on_memory_allocationEPKvm(ptr noundef %6, i64 noundef %5) #20
  %7 = getelementptr inbounds i8, ptr %0, i64 16
  store ptr %6, ptr %7, align 8
  %8 = tail call ptr @strncpy(ptr noundef %6, ptr noundef nonnull %1, i64 noundef %5) #20
  br label %9

9:                                                ; preds = %3, %2
  ret void
}